target datalayout = "e-m:e-p270:32:32-p271:32:32-p272:64:64-i64:64-i128:128-f80:128-n8:16:32:64-S128"
target triple = "x86_64-pc-linux-gnu"

%"class.glslang::TQualifier" = type <{ ptr, i64, i8, [3 x i8], i32, i32, i64, i64, i8, i8, i8, i8, i8, [3 x i8], i32, i8, i8, i8, i8, i32, ptr, i8, i8, [6 x i8] }>

; Function Attrs: mustprogress nounwind uwtable
define linkonce_odr noundef zeroext i1 @_ZNK7glslang10TQualifier12isTaskMemoryEv(ptr noundef nonnull align 8 dereferenceable(80) %0) #4 comdat align 2 {
  %2 = alloca ptr, align 8
  store ptr %0, ptr %2, align 8
  %3 = load ptr, ptr %2, align 8
  %4 = getelementptr inbounds %"class.glslang::TQualifier", ptr %3, i32 0, i32 1
  %5 = load i64, ptr %4, align 8
  %6 = lshr i64 %5, 43
  %7 = and i64 %6, 1
  %8 = trunc i64 %7 to i1
  ret i1 %8
}

; Function Attrs: mustprogress nounwind uwtable
define internal noundef i32 @_ZNK12_GLOBAL__N_122TGlslangToSpvTraverser17getExplicitLayoutERKN7glslang5TTypeE(ptr noundef nonnull align 8 dereferenceable(3528) %0, ptr noundef nonnull align 8 dereferenceable(152) %1) #4 align 2 {
  %3 = alloca i32, align 4
  %4 = alloca ptr, align 8
  %5 = alloca ptr, align 8
  store ptr %0, ptr %4, align 8
  store ptr %1, ptr %5, align 8
  %6 = load ptr, ptr %5, align 8
  %7 = load ptr, ptr %6, align 8
  %8 = getelementptr inbounds ptr, ptr %7, i64 7
  %9 = load ptr, ptr %8, align 8
  %10 = call noundef i32 %9(ptr noundef nonnull align 8 dereferenceable(152) %6)
  %11 = icmp ne i32 %10, 16
  br i1 %11, label %12, label %13

12:                                               ; preds = %2
  store i32 0, ptr %3, align 4
  br label %75

13:                                               ; preds = %2
  %14 = load ptr, ptr %5, align 8
  %15 = load ptr, ptr %14, align 8
  %16 = getelementptr inbounds ptr, ptr %15, i64 11
  %17 = load ptr, ptr %16, align 8
  %18 = call noundef nonnull align 8 dereferenceable(80) ptr %17(ptr noundef nonnull align 8 dereferenceable(152) %14)
  %19 = getelementptr inbounds %"class.glslang::TQualifier", ptr %18, i32 0, i32 1
  %20 = load i64, ptr %19, align 8
  %21 = and i64 %20, 127
  %22 = trunc i64 %21 to i32
  %23 = icmp ne i32 %22, 5
  br i1 %23, label %24, label %54

24:                                               ; preds = %13
  %25 = load ptr, ptr %5, align 8
  %26 = load ptr, ptr %25, align 8
  %27 = getelementptr inbounds ptr, ptr %26, i64 11
  %28 = load ptr, ptr %27, align 8
  %29 = call noundef nonnull align 8 dereferenceable(80) ptr %28(ptr noundef nonnull align 8 dereferenceable(152) %25)
  %30 = getelementptr inbounds %"class.glslang::TQualifier", ptr %29, i32 0, i32 1
  %31 = load i64, ptr %30, align 8
  %32 = and i64 %31, 127
  %33 = trunc i64 %32 to i32
  %34 = icmp ne i32 %33, 6
  br i1 %34, label %35, label %54

35:                                               ; preds = %24
  %36 = load ptr, ptr %5, align 8
  %37 = load ptr, ptr %36, align 8
  %38 = getelementptr inbounds ptr, ptr %37, i64 11
  %39 = load ptr, ptr %38, align 8
  %40 = call noundef nonnull align 8 dereferenceable(80) ptr %39(ptr noundef nonnull align 8 dereferenceable(152) %36)
  %41 = getelementptr inbounds %"class.glslang::TQualifier", ptr %40, i32 0, i32 1
  %42 = load i64, ptr %41, align 8
  %43 = and i64 %42, 127
  %44 = trunc i64 %43 to i32
  %45 = icmp ne i32 %44, 7
  br i1 %45, label %46, label %54

46:                                               ; preds = %35
  %47 = load ptr, ptr %5, align 8
  %48 = load ptr, ptr %47, align 8
  %49 = getelementptr inbounds ptr, ptr %48, i64 11
  %50 = load ptr, ptr %49, align 8
  %51 = call noundef nonnull align 8 dereferenceable(80) ptr %50(ptr noundef nonnull align 8 dereferenceable(152) %47)
  %52 = call noundef zeroext i1 @_ZNK7glslang10TQualifier12isTaskMemoryEv(ptr noundef nonnull align 8 dereferenceable(80) %51)
  br i1 %52, label %54, label %53

53:                                               ; preds = %46
  store i32 0, ptr %3, align 4
  br label %75

54:                                               ; preds = %46, %35, %24, %13
  %55 = load ptr, ptr %5, align 8
  %56 = load ptr, ptr %55, align 8
  %57 = getelementptr inbounds ptr, ptr %56, i64 11
  %58 = load ptr, ptr %57, align 8
  %59 = call noundef nonnull align 8 dereferenceable(80) ptr %58(ptr noundef nonnull align 8 dereferenceable(152) %55)
  %60 = getelementptr inbounds %"class.glslang::TQualifier", ptr %59, i32 0, i32 2
  %61 = load i8, ptr %60, align 8
  %62 = and i8 %61, 15
  %63 = zext i8 %62 to i32
  switch i32 %63, label %74 [
    i32 2, label %64
    i32 3, label %64
    i32 5, label %64
  ]

64:                                               ; preds = %54, %54, %54
  %65 = load ptr, ptr %5, align 8
  %66 = load ptr, ptr %65, align 8
  %67 = getelementptr inbounds ptr, ptr %66, i64 11
  %68 = load ptr, ptr %67, align 8
  %69 = call noundef nonnull align 8 dereferenceable(80) ptr %68(ptr noundef nonnull align 8 dereferenceable(152) %65)
  %70 = getelementptr inbounds %"class.glslang::TQualifier", ptr %69, i32 0, i32 2
  %71 = load i8, ptr %70, align 8
  %72 = and i8 %71, 15
  %73 = zext i8 %72 to i32
  store i32 %73, ptr %3, align 4
  br label %75

74:                                               ; preds = %54
  store i32 0, ptr %3, align 4
  br label %75

75:                                               ; preds = %74, %64, %53, %12
  %76 = load i32, ptr %3, align 4
  ret i32 %76
}

; Function Attrs: mustprogress nounwind uwtable
define internal noundef i32 @_ZN12_GLOBAL__N_122TGlslangToSpvTraverser23convertGlslangToSpvTypeERKN7glslang5TTypeEb(ptr noundef nonnull align 8 dereferenceable(3528) %0, ptr noundef nonnull align 8 dereferenceable(152) %1, i1 noundef zeroext %2) #4 align 2 {
  %4 = alloca ptr, align 8
  %5 = alloca ptr, align 8
  %6 = alloca i8, align 1
  store ptr %0, ptr %4, align 8
  store ptr %1, ptr %5, align 8
  %7 = zext i1 %2 to i8
  store i8 %7, ptr %6, align 1
  %8 = load ptr, ptr %4, align 8
  %9 = load ptr, ptr %5, align 8
  %10 = load ptr, ptr %5, align 8
  %11 = call noundef i32 @_ZNK12_GLOBAL__N_122TGlslangToSpvTraverser17getExplicitLayoutERKN7glslang5TTypeE(ptr noundef nonnull align 8 dereferenceable(3528) %8, ptr noundef nonnull align 8 dereferenceable(152) %10)
  %12 = load ptr, ptr %5, align 8
  %13 = load ptr, ptr %12, align 8
  %14 = getelementptr inbounds ptr, ptr %13, i64 11
  %15 = load ptr, ptr %14, align 8
  %16 = call noundef nonnull align 8 dereferenceable(80) ptr %15(ptr noundef nonnull align 8 dereferenceable(152) %12)
  %17 = load i8, ptr %6, align 1
  %18 = trunc i8 %17 to i1
  %19 = call noundef i32 @_ZN12_GLOBAL__N_122TGlslangToSpvTraverser23convertGlslangToSpvTypeERKN7glslang5TTypeENS1_14TLayoutPackingERKNS1_10TQualifierEbb(ptr noundef nonnull align 8 dereferenceable(3528) %8, ptr noundef nonnull align 8 dereferenceable(152) %9, i32 noundef %11, ptr noundef nonnull align 8 dereferenceable(80) %16, i1 noundef zeroext false, i1 noundef zeroext %18)
  ret i32 %19
}