; Function Attrs: mustprogress nounwind uwtable
define internal fastcc noundef i32 @_ZN12_GLOBAL__N_122TGlslangToSpvTraverser23convertGlslangToSpvTypeERKN7glslang5TTypeEb(ptr noundef nonnull align 8 dereferenceable(3528) %0, ptr noundef nonnull align 8 dereferenceable(152) %1) unnamed_addr #3 align 2 {
  %3 = load ptr, ptr %1, align 8
  %4 = getelementptr inbounds nuw i8, ptr %3, i64 56
  %5 = load ptr, ptr %4, align 8
  %6 = tail call noundef i32 %5(ptr noundef nonnull align 8 dereferenceable(152) %1) #20
  %.not.i = icmp eq i32 %6, 16
  br i1 %.not.i, label %7, label %_ZNK12_GLOBAL__N_122TGlslangToSpvTraverser17getExplicitLayoutERKN7glslang5TTypeE.exit

7:                                                ; preds = %2
  %8 = load ptr, ptr %1, align 8
  %9 = getelementptr inbounds nuw i8, ptr %8, i64 88
  %10 = load ptr, ptr %9, align 8
  %11 = tail call noundef nonnull align 8 dereferenceable(80) ptr %10(ptr noundef nonnull align 8 dereferenceable(152) %1) #20
  %12 = getelementptr inbounds nuw i8, ptr %11, i64 8
  %13 = load i64, ptr %12, align 8
  %14 = and i64 %13, 127
  %.not7.i = icmp eq i64 %14, 5
  br i1 %.not7.i, label %39, label %15

15:                                               ; preds = %7
  %16 = load ptr, ptr %1, align 8
  %17 = getelementptr inbounds nuw i8, ptr %16, i64 88
  %18 = load ptr, ptr %17, align 8
  %19 = tail call noundef nonnull align 8 dereferenceable(80) ptr %18(ptr noundef nonnull align 8 dereferenceable(152) %1) #20
  %20 = getelementptr inbounds nuw i8, ptr %19, i64 8
  %21 = load i64, ptr %20, align 8
  %22 = and i64 %21, 127
  %.not8.i = icmp eq i64 %22, 6
  br i1 %.not8.i, label %39, label %23

23:                                               ; preds = %15
  %24 = load ptr, ptr %1, align 8
  %25 = getelementptr inbounds nuw i8, ptr %24, i64 88
  %26 = load ptr, ptr %25, align 8
  %27 = tail call noundef nonnull align 8 dereferenceable(80) ptr %26(ptr noundef nonnull align 8 dereferenceable(152) %1) #20
  %28 = getelementptr inbounds nuw i8, ptr %27, i64 8
  %29 = load i64, ptr %28, align 8
  %30 = and i64 %29, 127
  %.not9.i = icmp eq i64 %30, 7
  br i1 %.not9.i, label %39, label %31

31:                                               ; preds = %23
  %32 = load ptr, ptr %1, align 8
  %33 = getelementptr inbounds nuw i8, ptr %32, i64 88
  %34 = load ptr, ptr %33, align 8
  %35 = tail call noundef nonnull align 8 dereferenceable(80) ptr %34(ptr noundef nonnull align 8 dereferenceable(152) %1) #20
  %36 = getelementptr inbounds nuw i8, ptr %35, i64 8
  %37 = load i64, ptr %36, align 8
  %38 = and i64 %37, 8796093022208
  %.not1.i = icmp eq i64 %38, 0
  br i1 %.not1.i, label %_ZNK12_GLOBAL__N_122TGlslangToSpvTraverser17getExplicitLayoutERKN7glslang5TTypeE.exit, label %39

39:                                               ; preds = %31, %23, %15, %7
  %40 = load ptr, ptr %1, align 8
  %41 = getelementptr inbounds nuw i8, ptr %40, i64 88
  %42 = load ptr, ptr %41, align 8
  %43 = tail call noundef nonnull align 8 dereferenceable(80) ptr %42(ptr noundef nonnull align 8 dereferenceable(152) %1) #20
  %44 = getelementptr inbounds nuw i8, ptr %43, i64 16
  %45 = load i8, ptr %44, align 8
  %46 = and i8 %45, 15
  switch i8 %46, label %_ZNK12_GLOBAL__N_122TGlslangToSpvTraverser17getExplicitLayoutERKN7glslang5TTypeE.exit [
    i8 2, label %47
    i8 3, label %47
    i8 5, label %47
  ]

47:                                               ; preds = %39, %39, %39
  %48 = load ptr, ptr %1, align 8
  %49 = getelementptr inbounds nuw i8, ptr %48, i64 88
  %50 = load ptr, ptr %49, align 8
  %51 = tail call noundef nonnull align 8 dereferenceable(80) ptr %50(ptr noundef nonnull align 8 dereferenceable(152) %1) #20
  %52 = getelementptr inbounds nuw i8, ptr %51, i64 16
  %53 = load i8, ptr %52, align 8
  %54 = and i8 %53, 15
  %55 = zext nneg i8 %54 to i32
  br label %_ZNK12_GLOBAL__N_122TGlslangToSpvTraverser17getExplicitLayoutERKN7glslang5TTypeE.exit

_ZNK12_GLOBAL__N_122TGlslangToSpvTraverser17getExplicitLayoutERKN7glslang5TTypeE.exit: ; preds = %2, %31, %39, %47
  %.0.i = phi i32 [ %55, %47 ], [ 0, %2 ], [ 0, %31 ], [ 0, %39 ]
  %56 = load ptr, ptr %1, align 8
  %57 = getelementptr inbounds nuw i8, ptr %56, i64 88
  %58 = load ptr, ptr %57, align 8
  %59 = tail call noundef nonnull align 8 dereferenceable(80) ptr %58(ptr noundef nonnull align 8 dereferenceable(152) %1) #20
  %60 = tail call fastcc noundef i32 @_ZN12_GLOBAL__N_122TGlslangToSpvTraverser23convertGlslangToSpvTypeERKN7glslang5TTypeENS1_14TLayoutPackingERKNS1_10TQualifierEbb(ptr noundef nonnull align 8 dereferenceable(3528) %0, ptr noundef nonnull align 8 dereferenceable(152) %1, i32 noundef %.0.i, ptr noundef nonnull align 8 dereferenceable(80) %59, i1 noundef zeroext false, i1 noundef zeroext false)
  ret i32 %60
}